; Function Attrs: nounwind uwtable
define hidden i32 @_cmsLockMutex(ptr noundef %0, ptr noundef %1) local_unnamed_addr #6 {
  %3 = tail call ptr @_cmsContextGetClientChunk(ptr noundef %0, i32 noundef 14) #20
  %4 = getelementptr inbounds i8, ptr %3, i64 16
  %5 = load ptr, ptr %4, align 8
  %6 = icmp eq ptr %5, null
  br i1 %6, label %9, label %7

7:                                                ; preds = %2
  %8 = tail call i32 %5(ptr noundef %0, ptr noundef %1) #20
  br label %9

9:                                                ; preds = %2, %7
  %.0 = phi i32 [ %8, %7 ], [ 1, %2 ]
  ret i32 %.0
}